ARM GAS  C:\Users\ASUS\AppData\Local\Temp\ccvq2hhr.s 			page 1


   1              		.cpu cortex-m4
   2              		.arch armv7e-m
   3              		.fpu fpv4-sp-d16
   4              		.eabi_attribute 27, 1
   5              		.eabi_attribute 28, 1
   6              		.eabi_attribute 20, 1
   7              		.eabi_attribute 21, 1
   8              		.eabi_attribute 23, 3
   9              		.eabi_attribute 24, 1
  10              		.eabi_attribute 25, 1
  11              		.eabi_attribute 26, 1
  12              		.eabi_attribute 30, 1
  13              		.eabi_attribute 34, 1
  14              		.eabi_attribute 18, 4
  15              		.file	"freertos.c"
  16              		.text
  17              	.Ltext0:
  18              		.cfi_sections	.debug_frame
  19              		.section	.text.StartLED_Task,"ax",%progbits
  20              		.align	1
  21              		.global	StartLED_Task
  22              		.syntax unified
  23              		.thumb
  24              		.thumb_func
  26              	StartLED_Task:
  27              	.LFB140:
  28              		.file 1 "Core/Src/freertos.c"
   1:Core/Src/freertos.c **** /* USER CODE BEGIN Header */
   2:Core/Src/freertos.c **** /**
   3:Core/Src/freertos.c ****   ******************************************************************************
   4:Core/Src/freertos.c ****   * File Name          : freertos.c
   5:Core/Src/freertos.c ****   * Description        : Code for freertos applications
   6:Core/Src/freertos.c ****   ******************************************************************************
   7:Core/Src/freertos.c ****   * @attention
   8:Core/Src/freertos.c ****   *
   9:Core/Src/freertos.c ****   * Copyright (c) 2026 STMicroelectronics.
  10:Core/Src/freertos.c ****   * All rights reserved.
  11:Core/Src/freertos.c ****   *
  12:Core/Src/freertos.c ****   * This software is licensed under terms that can be found in the LICENSE file
  13:Core/Src/freertos.c ****   * in the root directory of this software component.
  14:Core/Src/freertos.c ****   * If no LICENSE file comes with this software, it is provided AS-IS.
  15:Core/Src/freertos.c ****   *
  16:Core/Src/freertos.c ****   ******************************************************************************
  17:Core/Src/freertos.c ****   */
  18:Core/Src/freertos.c **** /* USER CODE END Header */
  19:Core/Src/freertos.c **** 
  20:Core/Src/freertos.c **** /* Includes ------------------------------------------------------------------*/
  21:Core/Src/freertos.c **** #include "FreeRTOS.h"
  22:Core/Src/freertos.c **** #include "task.h"
  23:Core/Src/freertos.c **** #include "main.h"
  24:Core/Src/freertos.c **** #include "cmsis_os.h"
  25:Core/Src/freertos.c **** 
  26:Core/Src/freertos.c **** /* Private includes ----------------------------------------------------------*/
  27:Core/Src/freertos.c **** /* USER CODE BEGIN Includes */
  28:Core/Src/freertos.c **** #include "Emm_V5.h"
  29:Core/Src/freertos.c **** #include "stdbool.h"
  30:Core/Src/freertos.c **** /* USER CODE END Includes */
ARM GAS  C:\Users\ASUS\AppData\Local\Temp\ccvq2hhr.s 			page 2


  31:Core/Src/freertos.c **** 
  32:Core/Src/freertos.c **** /* Private typedef -----------------------------------------------------------*/
  33:Core/Src/freertos.c **** /* USER CODE BEGIN PTD */
  34:Core/Src/freertos.c **** uint16_t btn1_counter = 0;
  35:Core/Src/freertos.c **** uint16_t btn2_counter = 0;
  36:Core/Src/freertos.c **** 
  37:Core/Src/freertos.c **** /* USER CODE END PTD */
  38:Core/Src/freertos.c **** 
  39:Core/Src/freertos.c **** /* Private define ------------------------------------------------------------*/
  40:Core/Src/freertos.c **** /* USER CODE BEGIN PD */
  41:Core/Src/freertos.c **** 
  42:Core/Src/freertos.c **** /* USER CODE END PD */
  43:Core/Src/freertos.c **** 
  44:Core/Src/freertos.c **** /* Private macro -------------------------------------------------------------*/
  45:Core/Src/freertos.c **** /* USER CODE BEGIN PM */
  46:Core/Src/freertos.c **** 
  47:Core/Src/freertos.c **** /* USER CODE END PM */
  48:Core/Src/freertos.c **** 
  49:Core/Src/freertos.c **** /* Private variables ---------------------------------------------------------*/
  50:Core/Src/freertos.c **** /* USER CODE BEGIN Variables */
  51:Core/Src/freertos.c **** 
  52:Core/Src/freertos.c **** /* USER CODE END Variables */
  53:Core/Src/freertos.c **** /* Definitions for Btn_Task */
  54:Core/Src/freertos.c **** osThreadId_t Btn_TaskHandle;
  55:Core/Src/freertos.c **** const osThreadAttr_t Btn_Task_attributes = {
  56:Core/Src/freertos.c ****   .name = "Btn_Task",
  57:Core/Src/freertos.c ****   .stack_size = 128 * 4,
  58:Core/Src/freertos.c ****   .priority = (osPriority_t) osPriorityNormal,
  59:Core/Src/freertos.c **** };
  60:Core/Src/freertos.c **** /* Definitions for LED_Task */
  61:Core/Src/freertos.c **** osThreadId_t LED_TaskHandle;
  62:Core/Src/freertos.c **** const osThreadAttr_t LED_Task_attributes = {
  63:Core/Src/freertos.c ****   .name = "LED_Task",
  64:Core/Src/freertos.c ****   .stack_size = 128 * 4,
  65:Core/Src/freertos.c ****   .priority = (osPriority_t) osPriorityNormal,
  66:Core/Src/freertos.c **** };
  67:Core/Src/freertos.c **** /* Definitions for Motor_Task */
  68:Core/Src/freertos.c **** osThreadId_t Motor_TaskHandle;
  69:Core/Src/freertos.c **** const osThreadAttr_t Motor_Task_attributes = {
  70:Core/Src/freertos.c ****   .name = "Motor_Task",
  71:Core/Src/freertos.c ****   .stack_size = 128 * 4,
  72:Core/Src/freertos.c ****   .priority = (osPriority_t) osPriorityNormal,
  73:Core/Src/freertos.c **** };
  74:Core/Src/freertos.c **** /* Definitions for Btn1_Queue */
  75:Core/Src/freertos.c **** osMessageQueueId_t Btn1_QueueHandle;
  76:Core/Src/freertos.c **** const osMessageQueueAttr_t Btn1_Queue_attributes = {
  77:Core/Src/freertos.c ****   .name = "Btn1_Queue"
  78:Core/Src/freertos.c **** };
  79:Core/Src/freertos.c **** /* Definitions for Btn2_Queue */
  80:Core/Src/freertos.c **** osMessageQueueId_t Btn2_QueueHandle;
  81:Core/Src/freertos.c **** const osMessageQueueAttr_t Btn2_Queue_attributes = {
  82:Core/Src/freertos.c ****   .name = "Btn2_Queue"
  83:Core/Src/freertos.c **** };
  84:Core/Src/freertos.c **** 
  85:Core/Src/freertos.c **** /* Private function prototypes -----------------------------------------------*/
  86:Core/Src/freertos.c **** /* USER CODE BEGIN FunctionPrototypes */
  87:Core/Src/freertos.c **** 
ARM GAS  C:\Users\ASUS\AppData\Local\Temp\ccvq2hhr.s 			page 3


  88:Core/Src/freertos.c **** /* USER CODE END FunctionPrototypes */
  89:Core/Src/freertos.c **** 
  90:Core/Src/freertos.c **** void StartBtn_Task(void *argument);
  91:Core/Src/freertos.c **** void StartLED_Task(void *argument);
  92:Core/Src/freertos.c **** void StartMotor_Task(void *argument);
  93:Core/Src/freertos.c **** 
  94:Core/Src/freertos.c **** void MX_FREERTOS_Init(void); /* (MISRA C 2004 rule 8.1) */
  95:Core/Src/freertos.c **** 
  96:Core/Src/freertos.c **** /**
  97:Core/Src/freertos.c ****   * @brief  FreeRTOS initialization
  98:Core/Src/freertos.c ****   * @param  None
  99:Core/Src/freertos.c ****   * @retval None
 100:Core/Src/freertos.c ****   */
 101:Core/Src/freertos.c **** void MX_FREERTOS_Init(void) {
 102:Core/Src/freertos.c ****   /* USER CODE BEGIN Init */
 103:Core/Src/freertos.c **** 
 104:Core/Src/freertos.c ****   /* USER CODE END Init */
 105:Core/Src/freertos.c **** 
 106:Core/Src/freertos.c ****   /* USER CODE BEGIN RTOS_MUTEX */
 107:Core/Src/freertos.c ****   /* add mutexes, ... */
 108:Core/Src/freertos.c ****   /* USER CODE END RTOS_MUTEX */
 109:Core/Src/freertos.c **** 
 110:Core/Src/freertos.c ****   /* USER CODE BEGIN RTOS_SEMAPHORES */
 111:Core/Src/freertos.c ****   /* add semaphores, ... */
 112:Core/Src/freertos.c ****   /* USER CODE END RTOS_SEMAPHORES */
 113:Core/Src/freertos.c **** 
 114:Core/Src/freertos.c ****   /* USER CODE BEGIN RTOS_TIMERS */
 115:Core/Src/freertos.c ****   /* start timers, add new ones, ... */
 116:Core/Src/freertos.c ****   /* USER CODE END RTOS_TIMERS */
 117:Core/Src/freertos.c **** 
 118:Core/Src/freertos.c ****   /* Create the queue(s) */
 119:Core/Src/freertos.c ****   /* creation of Btn1_Queue */
 120:Core/Src/freertos.c ****   Btn1_QueueHandle = osMessageQueueNew (16, sizeof(uint16_t), &Btn1_Queue_attributes);
 121:Core/Src/freertos.c **** 
 122:Core/Src/freertos.c ****   /* creation of Btn2_Queue */
 123:Core/Src/freertos.c ****   Btn2_QueueHandle = osMessageQueueNew (16, sizeof(uint16_t), &Btn2_Queue_attributes);
 124:Core/Src/freertos.c **** 
 125:Core/Src/freertos.c ****   /* USER CODE BEGIN RTOS_QUEUES */
 126:Core/Src/freertos.c ****   /* add queues, ... */
 127:Core/Src/freertos.c ****   /* USER CODE END RTOS_QUEUES */
 128:Core/Src/freertos.c **** 
 129:Core/Src/freertos.c ****   /* Create the thread(s) */
 130:Core/Src/freertos.c ****   /* creation of Btn_Task */
 131:Core/Src/freertos.c ****   Btn_TaskHandle = osThreadNew(StartBtn_Task, NULL, &Btn_Task_attributes);
 132:Core/Src/freertos.c **** 
 133:Core/Src/freertos.c ****   /* creation of LED_Task */
 134:Core/Src/freertos.c ****   LED_TaskHandle = osThreadNew(StartLED_Task, NULL, &LED_Task_attributes);
 135:Core/Src/freertos.c **** 
 136:Core/Src/freertos.c ****   /* creation of Motor_Task */
 137:Core/Src/freertos.c ****   Motor_TaskHandle = osThreadNew(StartMotor_Task, NULL, &Motor_Task_attributes);
 138:Core/Src/freertos.c **** 
 139:Core/Src/freertos.c ****   /* USER CODE BEGIN RTOS_THREADS */
 140:Core/Src/freertos.c ****   /* add threads, ... */
 141:Core/Src/freertos.c ****   /* USER CODE END RTOS_THREADS */
 142:Core/Src/freertos.c **** 
 143:Core/Src/freertos.c ****   /* USER CODE BEGIN RTOS_EVENTS */
 144:Core/Src/freertos.c ****   /* add events, ... */
ARM GAS  C:\Users\ASUS\AppData\Local\Temp\ccvq2hhr.s 			page 4


 145:Core/Src/freertos.c ****   /* USER CODE END RTOS_EVENTS */
 146:Core/Src/freertos.c **** 
 147:Core/Src/freertos.c **** }
 148:Core/Src/freertos.c **** 
 149:Core/Src/freertos.c **** /* USER CODE BEGIN Header_StartBtn_Task */
 150:Core/Src/freertos.c **** /**
 151:Core/Src/freertos.c ****   * @brief  Function implementing the Btn_Task thread.
 152:Core/Src/freertos.c ****   * @param  argument: Not used
 153:Core/Src/freertos.c ****   * @retval None
 154:Core/Src/freertos.c ****   */
 155:Core/Src/freertos.c **** /* USER CODE END Header_StartBtn_Task */
 156:Core/Src/freertos.c **** void StartBtn_Task(void *argument)
 157:Core/Src/freertos.c **** {
 158:Core/Src/freertos.c ****   /* USER CODE BEGIN StartBtn_Task */
 159:Core/Src/freertos.c **** 
 160:Core/Src/freertos.c ****   /* Infinite loop */
 161:Core/Src/freertos.c ****   for(;;)
 162:Core/Src/freertos.c ****   {
 163:Core/Src/freertos.c ****     if (HAL_GPIO_ReadPin(GPIOB, GPIO_PIN_9) == GPIO_PIN_RESET) 
 164:Core/Src/freertos.c ****     {
 165:Core/Src/freertos.c ****       osDelay(10); // 防抖延时
 166:Core/Src/freertos.c ****       if (HAL_GPIO_ReadPin(GPIOB, GPIO_PIN_9) == GPIO_PIN_RESET)
 167:Core/Src/freertos.c ****       {
 168:Core/Src/freertos.c ****         btn1_counter++;
 169:Core/Src/freertos.c ****         osMessageQueuePut(Btn1_QueueHandle, &btn1_counter, NULL, osWaitForever);
 170:Core/Src/freertos.c ****       }
 171:Core/Src/freertos.c ****       while (HAL_GPIO_ReadPin(GPIOB, GPIO_PIN_9) == GPIO_PIN_RESET)
 172:Core/Src/freertos.c ****       {
 173:Core/Src/freertos.c ****         osDelay(10); // 等待按键释放
 174:Core/Src/freertos.c ****       }
 175:Core/Src/freertos.c ****     }
 176:Core/Src/freertos.c ****     else
 177:Core/Src/freertos.c ****     {
 178:Core/Src/freertos.c ****       osDelay(10);
 179:Core/Src/freertos.c ****     }
 180:Core/Src/freertos.c ****   }
 181:Core/Src/freertos.c ****   /* USER CODE END StartBtn_Task */
 182:Core/Src/freertos.c **** }
 183:Core/Src/freertos.c **** 
 184:Core/Src/freertos.c **** /* USER CODE BEGIN Header_StartLED_Task */
 185:Core/Src/freertos.c **** /**
 186:Core/Src/freertos.c **** * @brief Function implementing the LED_Task thread.
 187:Core/Src/freertos.c **** * @param argument: Not used
 188:Core/Src/freertos.c **** * @retval None
 189:Core/Src/freertos.c **** */
 190:Core/Src/freertos.c **** /* USER CODE END Header_StartLED_Task */
 191:Core/Src/freertos.c **** void StartLED_Task(void *argument)
 192:Core/Src/freertos.c **** {
  29              		.loc 1 192 1 view -0
  30              		.cfi_startproc
  31              		@ Volatile: function does not return.
  32              		@ args = 0, pretend = 0, frame = 0
  33              		@ frame_needed = 0, uses_anonymous_args = 0
  34              	.LVL0:
  35              		.loc 1 192 1 is_stmt 0 view .LVU1
  36 0000 08B5     		push	{r3, lr}
  37              	.LCFI0:
ARM GAS  C:\Users\ASUS\AppData\Local\Temp\ccvq2hhr.s 			page 5


  38              		.cfi_def_cfa_offset 8
  39              		.cfi_offset 3, -8
  40              		.cfi_offset 14, -4
  41              	.LVL1:
  42              	.L2:
 193:Core/Src/freertos.c ****   /* USER CODE BEGIN StartLED_Task */
 194:Core/Src/freertos.c **** 
 195:Core/Src/freertos.c ****   /* Infinite loop */
 196:Core/Src/freertos.c ****   for(;;)
  43              		.loc 1 196 3 is_stmt 1 discriminator 1 view .LVU2
 197:Core/Src/freertos.c ****   {
 198:Core/Src/freertos.c ****     // osMessageQueueGet(Btn1_QueueHandle, &btn1_counter, NULL, osWaitForever);
 199:Core/Src/freertos.c ****     // if (btn1_counter % 2 == 0) {
 200:Core/Src/freertos.c ****     //   HAL_GPIO_WritePin(GPIOC, GPIO_PIN_0, GPIO_PIN_RESET);
 201:Core/Src/freertos.c ****     // } 
 202:Core/Src/freertos.c ****     // else 
 203:Core/Src/freertos.c ****     // {
 204:Core/Src/freertos.c ****     //   HAL_GPIO_WritePin(GPIOC, GPIO_PIN_0, GPIO_PIN_SET);
 205:Core/Src/freertos.c ****     // }
 206:Core/Src/freertos.c ****     osDelay(1);
  44              		.loc 1 206 5 discriminator 1 view .LVU3
  45 0002 0120     		movs	r0, #1
  46 0004 FFF7FEFF 		bl	osDelay
  47              	.LVL2:
 196:Core/Src/freertos.c ****   {
  48              		.loc 1 196 8 discriminator 1 view .LVU4
  49 0008 FBE7     		b	.L2
  50              		.cfi_endproc
  51              	.LFE140:
  53              		.section	.text.StartBtn_Task,"ax",%progbits
  54              		.align	1
  55              		.global	StartBtn_Task
  56              		.syntax unified
  57              		.thumb
  58              		.thumb_func
  60              	StartBtn_Task:
  61              	.LFB139:
 157:Core/Src/freertos.c ****   /* USER CODE BEGIN StartBtn_Task */
  62              		.loc 1 157 1 view -0
  63              		.cfi_startproc
  64              		@ Volatile: function does not return.
  65              		@ args = 0, pretend = 0, frame = 0
  66              		@ frame_needed = 0, uses_anonymous_args = 0
  67              	.LVL3:
 157:Core/Src/freertos.c ****   /* USER CODE BEGIN StartBtn_Task */
  68              		.loc 1 157 1 is_stmt 0 view .LVU6
  69 0000 08B5     		push	{r3, lr}
  70              	.LCFI1:
  71              		.cfi_def_cfa_offset 8
  72              		.cfi_offset 3, -8
  73              		.cfi_offset 14, -4
  74 0002 09E0     		b	.L5
  75              	.LVL4:
  76              	.L12:
 173:Core/Src/freertos.c ****       }
  77              		.loc 1 173 9 is_stmt 1 view .LVU7
  78 0004 0A20     		movs	r0, #10
ARM GAS  C:\Users\ASUS\AppData\Local\Temp\ccvq2hhr.s 			page 6


  79 0006 FFF7FEFF 		bl	osDelay
  80              	.LVL5:
  81              	.L8:
 171:Core/Src/freertos.c ****       {
  82              		.loc 1 171 13 view .LVU8
 171:Core/Src/freertos.c ****       {
  83              		.loc 1 171 14 is_stmt 0 view .LVU9
  84 000a 4FF40071 		mov	r1, #512
  85 000e 1248     		ldr	r0, .L13
  86 0010 FFF7FEFF 		bl	HAL_GPIO_ReadPin
  87              	.LVL6:
 171:Core/Src/freertos.c ****       {
  88              		.loc 1 171 13 view .LVU10
  89 0014 0028     		cmp	r0, #0
  90 0016 F5D0     		beq	.L12
  91              	.L5:
 161:Core/Src/freertos.c ****   {
  92              		.loc 1 161 3 is_stmt 1 view .LVU11
 163:Core/Src/freertos.c ****     {
  93              		.loc 1 163 5 view .LVU12
 163:Core/Src/freertos.c ****     {
  94              		.loc 1 163 9 is_stmt 0 view .LVU13
  95 0018 4FF40071 		mov	r1, #512
  96 001c 0E48     		ldr	r0, .L13
  97 001e FFF7FEFF 		bl	HAL_GPIO_ReadPin
  98              	.LVL7:
 163:Core/Src/freertos.c ****     {
  99              		.loc 1 163 8 view .LVU14
 100 0022 A8B9     		cbnz	r0, .L6
 165:Core/Src/freertos.c ****       if (HAL_GPIO_ReadPin(GPIOB, GPIO_PIN_9) == GPIO_PIN_RESET)
 101              		.loc 1 165 7 is_stmt 1 view .LVU15
 102 0024 0A20     		movs	r0, #10
 103 0026 FFF7FEFF 		bl	osDelay
 104              	.LVL8:
 166:Core/Src/freertos.c ****       {
 105              		.loc 1 166 7 view .LVU16
 166:Core/Src/freertos.c ****       {
 106              		.loc 1 166 11 is_stmt 0 view .LVU17
 107 002a 4FF40071 		mov	r1, #512
 108 002e 0A48     		ldr	r0, .L13
 109 0030 FFF7FEFF 		bl	HAL_GPIO_ReadPin
 110              	.LVL9:
 166:Core/Src/freertos.c ****       {
 111              		.loc 1 166 10 view .LVU18
 112 0034 0028     		cmp	r0, #0
 113 0036 E8D1     		bne	.L8
 168:Core/Src/freertos.c ****         osMessageQueuePut(Btn1_QueueHandle, &btn1_counter, NULL, osWaitForever);
 114              		.loc 1 168 9 is_stmt 1 view .LVU19
 168:Core/Src/freertos.c ****         osMessageQueuePut(Btn1_QueueHandle, &btn1_counter, NULL, osWaitForever);
 115              		.loc 1 168 21 is_stmt 0 view .LVU20
 116 0038 0849     		ldr	r1, .L13+4
 117 003a 0B88     		ldrh	r3, [r1]
 118 003c 0133     		adds	r3, r3, #1
 119 003e 0B80     		strh	r3, [r1]	@ movhi
 169:Core/Src/freertos.c ****       }
 120              		.loc 1 169 9 is_stmt 1 view .LVU21
 121 0040 4FF0FF33 		mov	r3, #-1
ARM GAS  C:\Users\ASUS\AppData\Local\Temp\ccvq2hhr.s 			page 7


 122 0044 0022     		movs	r2, #0
 123 0046 0648     		ldr	r0, .L13+8
 124 0048 0068     		ldr	r0, [r0]
 125 004a FFF7FEFF 		bl	osMessageQueuePut
 126              	.LVL10:
 127 004e DCE7     		b	.L8
 128              	.L6:
 178:Core/Src/freertos.c ****     }
 129              		.loc 1 178 7 view .LVU22
 130 0050 0A20     		movs	r0, #10
 131 0052 FFF7FEFF 		bl	osDelay
 132              	.LVL11:
 133 0056 DFE7     		b	.L5
 134              	.L14:
 135              		.align	2
 136              	.L13:
 137 0058 00040240 		.word	1073873920
 138 005c 00000000 		.word	.LANCHOR0
 139 0060 00000000 		.word	.LANCHOR1
 140              		.cfi_endproc
 141              	.LFE139:
 143              		.section	.text.StartMotor_Task,"ax",%progbits
 144              		.align	1
 145              		.global	StartMotor_Task
 146              		.syntax unified
 147              		.thumb
 148              		.thumb_func
 150              	StartMotor_Task:
 151              	.LVL12:
 152              	.LFB141:
 207:Core/Src/freertos.c ****   }
 208:Core/Src/freertos.c ****   /* USER CODE END StartLED_Task */
 209:Core/Src/freertos.c **** }
 210:Core/Src/freertos.c **** 
 211:Core/Src/freertos.c **** /* USER CODE BEGIN Header_StartMotor_Task */
 212:Core/Src/freertos.c **** /**
 213:Core/Src/freertos.c **** * @brief Function implementing the Motor_Task thread.
 214:Core/Src/freertos.c **** * @param argument: Not used
 215:Core/Src/freertos.c **** * @retval None
 216:Core/Src/freertos.c **** */
 217:Core/Src/freertos.c **** /* USER CODE END Header_StartMotor_Task */
 218:Core/Src/freertos.c **** void StartMotor_Task(void *argument)
 219:Core/Src/freertos.c **** {
 153              		.loc 1 219 1 view -0
 154              		.cfi_startproc
 155              		@ args = 0, pretend = 0, frame = 0
 156              		@ frame_needed = 0, uses_anonymous_args = 0
 157              		.loc 1 219 1 is_stmt 0 view .LVU24
 158 0000 10B5     		push	{r4, lr}
 159              	.LCFI2:
 160              		.cfi_def_cfa_offset 8
 161              		.cfi_offset 4, -8
 162              		.cfi_offset 14, -4
 163 0002 82B0     		sub	sp, sp, #8
 164              	.LCFI3:
 165              		.cfi_def_cfa_offset 16
 220:Core/Src/freertos.c ****   /* USER CODE BEGIN StartMotor_Task */
ARM GAS  C:\Users\ASUS\AppData\Local\Temp\ccvq2hhr.s 			page 8


 221:Core/Src/freertos.c ****   uint16_t motor_vel_init = 500;
 166              		.loc 1 221 3 is_stmt 1 view .LVU25
 167              	.LVL13:
 222:Core/Src/freertos.c ****   Emm_V5_En_Control(0x01, true, false);
 168              		.loc 1 222 3 view .LVU26
 169 0004 0022     		movs	r2, #0
 170 0006 0121     		movs	r1, #1
 171 0008 0846     		mov	r0, r1
 172              	.LVL14:
 173              		.loc 1 222 3 is_stmt 0 view .LVU27
 174 000a FFF7FEFF 		bl	Emm_V5_En_Control
 175              	.LVL15:
 223:Core/Src/freertos.c ****   osDelay(10);
 176              		.loc 1 223 3 is_stmt 1 view .LVU28
 177 000e 0A20     		movs	r0, #10
 178 0010 FFF7FEFF 		bl	osDelay
 179              	.LVL16:
 224:Core/Src/freertos.c ****   Emm_V5_Vel_Control(0x01, 0x00, motor_vel_init, 50, false);
 180              		.loc 1 224 3 view .LVU29
 181 0014 0021     		movs	r1, #0
 182 0016 0091     		str	r1, [sp]
 183 0018 3223     		movs	r3, #50
 184 001a 4FF4FA72 		mov	r2, #500
 185 001e 0120     		movs	r0, #1
 186 0020 FFF7FEFF 		bl	Emm_V5_Vel_Control
 187              	.LVL17:
 225:Core/Src/freertos.c ****   osDelay(10);
 188              		.loc 1 225 3 view .LVU30
 189 0024 0A20     		movs	r0, #10
 190 0026 FFF7FEFF 		bl	osDelay
 191              	.LVL18:
 192 002a 0AE0     		b	.L18
 193              	.L20:
 226:Core/Src/freertos.c ****   /* Infinite loop */
 227:Core/Src/freertos.c ****   for(;;)
 228:Core/Src/freertos.c ****   {
 229:Core/Src/freertos.c ****     osMessageQueueGet(Btn1_QueueHandle, &btn1_counter, NULL, osWaitForever);
 230:Core/Src/freertos.c ****     if (btn1_counter % 2 == 0)
 231:Core/Src/freertos.c ****     {
 232:Core/Src/freertos.c ****       Emm_V5_Vel_Control(0x01, 0x00, motor_vel_init, 50, false);
 194              		.loc 1 232 7 view .LVU31
 195 002c 0021     		movs	r1, #0
 196 002e 0091     		str	r1, [sp]
 197 0030 3223     		movs	r3, #50
 198 0032 4FF4FA72 		mov	r2, #500
 199 0036 0120     		movs	r0, #1
 200 0038 FFF7FEFF 		bl	Emm_V5_Vel_Control
 201              	.LVL19:
 202              	.L17:
 233:Core/Src/freertos.c ****     }
 234:Core/Src/freertos.c ****     else
 235:Core/Src/freertos.c ****     {
 236:Core/Src/freertos.c ****       Emm_V5_Vel_Control(0x01, 0x01, 0, 50, false);
 237:Core/Src/freertos.c ****     }
 238:Core/Src/freertos.c ****     osDelay(10);
 203              		.loc 1 238 5 view .LVU32
 204 003c 0A20     		movs	r0, #10
ARM GAS  C:\Users\ASUS\AppData\Local\Temp\ccvq2hhr.s 			page 9


 205 003e FFF7FEFF 		bl	osDelay
 206              	.LVL20:
 227:Core/Src/freertos.c ****   {
 207              		.loc 1 227 8 view .LVU33
 208              	.L18:
 227:Core/Src/freertos.c ****   {
 209              		.loc 1 227 3 view .LVU34
 229:Core/Src/freertos.c ****     if (btn1_counter % 2 == 0)
 210              		.loc 1 229 5 view .LVU35
 211 0042 0A4C     		ldr	r4, .L21
 212 0044 4FF0FF33 		mov	r3, #-1
 213 0048 0022     		movs	r2, #0
 214 004a 2146     		mov	r1, r4
 215 004c 0848     		ldr	r0, .L21+4
 216 004e 0068     		ldr	r0, [r0]
 217 0050 FFF7FEFF 		bl	osMessageQueueGet
 218              	.LVL21:
 230:Core/Src/freertos.c ****     {
 219              		.loc 1 230 5 view .LVU36
 230:Core/Src/freertos.c ****     {
 220              		.loc 1 230 26 is_stmt 0 view .LVU37
 221 0054 2388     		ldrh	r3, [r4]
 230:Core/Src/freertos.c ****     {
 222              		.loc 1 230 8 view .LVU38
 223 0056 13F0010F 		tst	r3, #1
 224 005a E7D0     		beq	.L20
 236:Core/Src/freertos.c ****     }
 225              		.loc 1 236 7 is_stmt 1 view .LVU39
 226 005c 0022     		movs	r2, #0
 227 005e 0092     		str	r2, [sp]
 228 0060 3223     		movs	r3, #50
 229 0062 0121     		movs	r1, #1
 230 0064 0846     		mov	r0, r1
 231 0066 FFF7FEFF 		bl	Emm_V5_Vel_Control
 232              	.LVL22:
 233 006a E7E7     		b	.L17
 234              	.L22:
 235              		.align	2
 236              	.L21:
 237 006c 00000000 		.word	.LANCHOR0
 238 0070 00000000 		.word	.LANCHOR1
 239              		.cfi_endproc
 240              	.LFE141:
 242              		.section	.text.MX_FREERTOS_Init,"ax",%progbits
 243              		.align	1
 244              		.global	MX_FREERTOS_Init
 245              		.syntax unified
 246              		.thumb
 247              		.thumb_func
 249              	MX_FREERTOS_Init:
 250              	.LFB138:
 101:Core/Src/freertos.c ****   /* USER CODE BEGIN Init */
 251              		.loc 1 101 29 view -0
 252              		.cfi_startproc
 253              		@ args = 0, pretend = 0, frame = 0
 254              		@ frame_needed = 0, uses_anonymous_args = 0
 255 0000 08B5     		push	{r3, lr}
ARM GAS  C:\Users\ASUS\AppData\Local\Temp\ccvq2hhr.s 			page 10


 256              	.LCFI4:
 257              		.cfi_def_cfa_offset 8
 258              		.cfi_offset 3, -8
 259              		.cfi_offset 14, -4
 120:Core/Src/freertos.c **** 
 260              		.loc 1 120 3 view .LVU41
 120:Core/Src/freertos.c **** 
 261              		.loc 1 120 22 is_stmt 0 view .LVU42
 262 0002 124A     		ldr	r2, .L25
 263 0004 0221     		movs	r1, #2
 264 0006 1020     		movs	r0, #16
 265 0008 FFF7FEFF 		bl	osMessageQueueNew
 266              	.LVL23:
 120:Core/Src/freertos.c **** 
 267              		.loc 1 120 20 view .LVU43
 268 000c 104B     		ldr	r3, .L25+4
 269 000e 1860     		str	r0, [r3]
 123:Core/Src/freertos.c **** 
 270              		.loc 1 123 3 is_stmt 1 view .LVU44
 123:Core/Src/freertos.c **** 
 271              		.loc 1 123 22 is_stmt 0 view .LVU45
 272 0010 104A     		ldr	r2, .L25+8
 273 0012 0221     		movs	r1, #2
 274 0014 1020     		movs	r0, #16
 275 0016 FFF7FEFF 		bl	osMessageQueueNew
 276              	.LVL24:
 123:Core/Src/freertos.c **** 
 277              		.loc 1 123 20 view .LVU46
 278 001a 0F4B     		ldr	r3, .L25+12
 279 001c 1860     		str	r0, [r3]
 131:Core/Src/freertos.c **** 
 280              		.loc 1 131 3 is_stmt 1 view .LVU47
 131:Core/Src/freertos.c **** 
 281              		.loc 1 131 20 is_stmt 0 view .LVU48
 282 001e 0F4A     		ldr	r2, .L25+16
 283 0020 0021     		movs	r1, #0
 284 0022 0F48     		ldr	r0, .L25+20
 285 0024 FFF7FEFF 		bl	osThreadNew
 286              	.LVL25:
 131:Core/Src/freertos.c **** 
 287              		.loc 1 131 18 view .LVU49
 288 0028 0E4B     		ldr	r3, .L25+24
 289 002a 1860     		str	r0, [r3]
 134:Core/Src/freertos.c **** 
 290              		.loc 1 134 3 is_stmt 1 view .LVU50
 134:Core/Src/freertos.c **** 
 291              		.loc 1 134 20 is_stmt 0 view .LVU51
 292 002c 0E4A     		ldr	r2, .L25+28
 293 002e 0021     		movs	r1, #0
 294 0030 0E48     		ldr	r0, .L25+32
 295 0032 FFF7FEFF 		bl	osThreadNew
 296              	.LVL26:
 134:Core/Src/freertos.c **** 
 297              		.loc 1 134 18 view .LVU52
 298 0036 0E4B     		ldr	r3, .L25+36
 299 0038 1860     		str	r0, [r3]
 137:Core/Src/freertos.c **** 
ARM GAS  C:\Users\ASUS\AppData\Local\Temp\ccvq2hhr.s 			page 11


 300              		.loc 1 137 3 is_stmt 1 view .LVU53
 137:Core/Src/freertos.c **** 
 301              		.loc 1 137 22 is_stmt 0 view .LVU54
 302 003a 0E4A     		ldr	r2, .L25+40
 303 003c 0021     		movs	r1, #0
 304 003e 0E48     		ldr	r0, .L25+44
 305 0040 FFF7FEFF 		bl	osThreadNew
 306              	.LVL27:
 137:Core/Src/freertos.c **** 
 307              		.loc 1 137 20 view .LVU55
 308 0044 0D4B     		ldr	r3, .L25+48
 309 0046 1860     		str	r0, [r3]
 147:Core/Src/freertos.c **** 
 310              		.loc 1 147 1 view .LVU56
 311 0048 08BD     		pop	{r3, pc}
 312              	.L26:
 313 004a 00BF     		.align	2
 314              	.L25:
 315 004c 00000000 		.word	.LANCHOR2
 316 0050 00000000 		.word	.LANCHOR1
 317 0054 00000000 		.word	.LANCHOR3
 318 0058 00000000 		.word	.LANCHOR4
 319 005c 00000000 		.word	.LANCHOR5
 320 0060 00000000 		.word	StartBtn_Task
 321 0064 00000000 		.word	.LANCHOR6
 322 0068 00000000 		.word	.LANCHOR7
 323 006c 00000000 		.word	StartLED_Task
 324 0070 00000000 		.word	.LANCHOR8
 325 0074 00000000 		.word	.LANCHOR9
 326 0078 00000000 		.word	StartMotor_Task
 327 007c 00000000 		.word	.LANCHOR10
 328              		.cfi_endproc
 329              	.LFE138:
 331              		.global	Btn2_Queue_attributes
 332              		.section	.rodata.str1.4,"aMS",%progbits,1
 333              		.align	2
 334              	.LC0:
 335 0000 42746E32 		.ascii	"Btn2_Queue\000"
 335      5F517565 
 335      756500
 336              		.global	Btn2_QueueHandle
 337              		.global	Btn1_Queue_attributes
 338 000b 00       		.align	2
 339              	.LC1:
 340 000c 42746E31 		.ascii	"Btn1_Queue\000"
 340      5F517565 
 340      756500
 341              		.global	Btn1_QueueHandle
 342              		.global	Motor_Task_attributes
 343 0017 00       		.align	2
 344              	.LC2:
 345 0018 4D6F746F 		.ascii	"Motor_Task\000"
 345      725F5461 
 345      736B00
 346              		.global	Motor_TaskHandle
 347              		.global	LED_Task_attributes
 348 0023 00       		.align	2
ARM GAS  C:\Users\ASUS\AppData\Local\Temp\ccvq2hhr.s 			page 12


 349              	.LC3:
 350 0024 4C45445F 		.ascii	"LED_Task\000"
 350      5461736B 
 350      00
 351              		.global	LED_TaskHandle
 352              		.global	Btn_Task_attributes
 353 002d 000000   		.align	2
 354              	.LC4:
 355 0030 42746E5F 		.ascii	"Btn_Task\000"
 355      5461736B 
 355      00
 356              		.global	Btn_TaskHandle
 357              		.global	btn2_counter
 358              		.global	btn1_counter
 359              		.section	.bss.Btn1_QueueHandle,"aw",%nobits
 360              		.align	2
 361              		.set	.LANCHOR1,. + 0
 364              	Btn1_QueueHandle:
 365 0000 00000000 		.space	4
 366              		.section	.bss.Btn2_QueueHandle,"aw",%nobits
 367              		.align	2
 368              		.set	.LANCHOR4,. + 0
 371              	Btn2_QueueHandle:
 372 0000 00000000 		.space	4
 373              		.section	.bss.Btn_TaskHandle,"aw",%nobits
 374              		.align	2
 375              		.set	.LANCHOR6,. + 0
 378              	Btn_TaskHandle:
 379 0000 00000000 		.space	4
 380              		.section	.bss.LED_TaskHandle,"aw",%nobits
 381              		.align	2
 382              		.set	.LANCHOR8,. + 0
 385              	LED_TaskHandle:
 386 0000 00000000 		.space	4
 387              		.section	.bss.Motor_TaskHandle,"aw",%nobits
 388              		.align	2
 389              		.set	.LANCHOR10,. + 0
 392              	Motor_TaskHandle:
 393 0000 00000000 		.space	4
 394              		.section	.bss.btn1_counter,"aw",%nobits
 395              		.align	1
 396              		.set	.LANCHOR0,. + 0
 399              	btn1_counter:
 400 0000 0000     		.space	2
 401              		.section	.bss.btn2_counter,"aw",%nobits
 402              		.align	1
 405              	btn2_counter:
 406 0000 0000     		.space	2
 407              		.section	.rodata.Btn1_Queue_attributes,"a"
 408              		.align	2
 409              		.set	.LANCHOR2,. + 0
 412              	Btn1_Queue_attributes:
 413 0000 0C000000 		.word	.LC1
 414 0004 00000000 		.space	20
 414      00000000 
 414      00000000 
 414      00000000 
ARM GAS  C:\Users\ASUS\AppData\Local\Temp\ccvq2hhr.s 			page 13


 414      00000000 
 415              		.section	.rodata.Btn2_Queue_attributes,"a"
 416              		.align	2
 417              		.set	.LANCHOR3,. + 0
 420              	Btn2_Queue_attributes:
 421 0000 00000000 		.word	.LC0
 422 0004 00000000 		.space	20
 422      00000000 
 422      00000000 
 422      00000000 
 422      00000000 
 423              		.section	.rodata.Btn_Task_attributes,"a"
 424              		.align	2
 425              		.set	.LANCHOR5,. + 0
 428              	Btn_Task_attributes:
 429 0000 30000000 		.word	.LC4
 430 0004 00000000 		.space	16
 430      00000000 
 430      00000000 
 430      00000000 
 431 0014 00020000 		.word	512
 432 0018 18000000 		.word	24
 433 001c 00000000 		.space	8
 433      00000000 
 434              		.section	.rodata.LED_Task_attributes,"a"
 435              		.align	2
 436              		.set	.LANCHOR7,. + 0
 439              	LED_Task_attributes:
 440 0000 24000000 		.word	.LC3
 441 0004 00000000 		.space	16
 441      00000000 
 441      00000000 
 441      00000000 
 442 0014 00020000 		.word	512
 443 0018 18000000 		.word	24
 444 001c 00000000 		.space	8
 444      00000000 
 445              		.section	.rodata.Motor_Task_attributes,"a"
 446              		.align	2
 447              		.set	.LANCHOR9,. + 0
 450              	Motor_Task_attributes:
 451 0000 18000000 		.word	.LC2
 452 0004 00000000 		.space	16
 452      00000000 
 452      00000000 
 452      00000000 
 453 0014 00020000 		.word	512
 454 0018 18000000 		.word	24
 455 001c 00000000 		.space	8
 455      00000000 
 456              		.text
 457              	.Letext0:
 458              		.file 2 "d:\\chain\\gcc-arm-none-eabi-10.3-2021.10-win32\\gcc-arm-none-eabi-10.3-2021.10\\arm-none
 459              		.file 3 "d:\\chain\\gcc-arm-none-eabi-10.3-2021.10-win32\\gcc-arm-none-eabi-10.3-2021.10\\arm-none
 460              		.file 4 "Drivers/CMSIS/Device/ST/STM32F4xx/Include/stm32f427xx.h"
 461              		.file 5 "Drivers/STM32F4xx_HAL_Driver/Inc/stm32f4xx_hal_gpio.h"
 462              		.file 6 "Middlewares/Third_Party/FreeRTOS/Source/CMSIS_RTOS_V2/cmsis_os2.h"
ARM GAS  C:\Users\ASUS\AppData\Local\Temp\ccvq2hhr.s 			page 14


 463              		.file 7 "Core/Inc/Emm_V5.h"
ARM GAS  C:\Users\ASUS\AppData\Local\Temp\ccvq2hhr.s 			page 15

