ARM GAS  C:\Users\ASUS\AppData\Local\Temp\ccu7VAaG.s 			page 1


   1              		.cpu cortex-m4
   2              		.arch armv7e-m
   3              		.fpu fpv4-sp-d16
   4              		.eabi_attribute 27, 1
   5              		.eabi_attribute 28, 1
   6              		.eabi_attribute 20, 1
   7              		.eabi_attribute 21, 1
   8              		.eabi_attribute 23, 3
   9              		.eabi_attribute 24, 1
  10              		.eabi_attribute 25, 1
  11              		.eabi_attribute 26, 1
  12              		.eabi_attribute 30, 1
  13              		.eabi_attribute 34, 1
  14              		.eabi_attribute 18, 4
  15              		.file	"freertos.c"
  16              		.text
  17              	.Ltext0:
  18              		.cfi_sections	.debug_frame
  19              		.section	.text.StartBtn_Task,"ax",%progbits
  20              		.align	1
  21              		.global	StartBtn_Task
  22              		.syntax unified
  23              		.thumb
  24              		.thumb_func
  26              	StartBtn_Task:
  27              	.LFB139:
  28              		.file 1 "Core/Src/freertos.c"
   1:Core/Src/freertos.c **** /* USER CODE BEGIN Header */
   2:Core/Src/freertos.c **** /**
   3:Core/Src/freertos.c ****   ******************************************************************************
   4:Core/Src/freertos.c ****   * File Name          : freertos.c
   5:Core/Src/freertos.c ****   * Description        : Code for freertos applications
   6:Core/Src/freertos.c ****   ******************************************************************************
   7:Core/Src/freertos.c ****   * @attention
   8:Core/Src/freertos.c ****   *
   9:Core/Src/freertos.c ****   * Copyright (c) 2026 STMicroelectronics.
  10:Core/Src/freertos.c ****   * All rights reserved.
  11:Core/Src/freertos.c ****   *
  12:Core/Src/freertos.c ****   * This software is licensed under terms that can be found in the LICENSE file
  13:Core/Src/freertos.c ****   * in the root directory of this software component.
  14:Core/Src/freertos.c ****   * If no LICENSE file comes with this software, it is provided AS-IS.
  15:Core/Src/freertos.c ****   *
  16:Core/Src/freertos.c ****   ******************************************************************************
  17:Core/Src/freertos.c ****   */
  18:Core/Src/freertos.c **** /* USER CODE END Header */
  19:Core/Src/freertos.c **** 
  20:Core/Src/freertos.c **** /* Includes ------------------------------------------------------------------*/
  21:Core/Src/freertos.c **** #include "FreeRTOS.h"
  22:Core/Src/freertos.c **** #include "task.h"
  23:Core/Src/freertos.c **** #include "main.h"
  24:Core/Src/freertos.c **** #include "cmsis_os.h"
  25:Core/Src/freertos.c **** 
  26:Core/Src/freertos.c **** /* Private includes ----------------------------------------------------------*/
  27:Core/Src/freertos.c **** /* USER CODE BEGIN Includes */
  28:Core/Src/freertos.c **** #include "Emm_V5.h"
  29:Core/Src/freertos.c **** #include "stdbool.h"
  30:Core/Src/freertos.c **** /* USER CODE END Includes */
ARM GAS  C:\Users\ASUS\AppData\Local\Temp\ccu7VAaG.s 			page 2


  31:Core/Src/freertos.c **** 
  32:Core/Src/freertos.c **** /* Private typedef -----------------------------------------------------------*/
  33:Core/Src/freertos.c **** /* USER CODE BEGIN PTD */
  34:Core/Src/freertos.c **** uint16_t btn1_counter = 0;
  35:Core/Src/freertos.c **** uint16_t btn2_counter = 0;
  36:Core/Src/freertos.c **** 
  37:Core/Src/freertos.c **** /* USER CODE END PTD */
  38:Core/Src/freertos.c **** 
  39:Core/Src/freertos.c **** /* Private define ------------------------------------------------------------*/
  40:Core/Src/freertos.c **** /* USER CODE BEGIN PD */
  41:Core/Src/freertos.c **** 
  42:Core/Src/freertos.c **** /* USER CODE END PD */
  43:Core/Src/freertos.c **** 
  44:Core/Src/freertos.c **** /* Private macro -------------------------------------------------------------*/
  45:Core/Src/freertos.c **** /* USER CODE BEGIN PM */
  46:Core/Src/freertos.c **** 
  47:Core/Src/freertos.c **** /* USER CODE END PM */
  48:Core/Src/freertos.c **** 
  49:Core/Src/freertos.c **** /* Private variables ---------------------------------------------------------*/
  50:Core/Src/freertos.c **** /* USER CODE BEGIN Variables */
  51:Core/Src/freertos.c **** 
  52:Core/Src/freertos.c **** /* USER CODE END Variables */
  53:Core/Src/freertos.c **** /* Definitions for Btn_Task */
  54:Core/Src/freertos.c **** osThreadId_t Btn_TaskHandle;
  55:Core/Src/freertos.c **** const osThreadAttr_t Btn_Task_attributes = {
  56:Core/Src/freertos.c ****   .name = "Btn_Task",
  57:Core/Src/freertos.c ****   .stack_size = 128 * 4,
  58:Core/Src/freertos.c ****   .priority = (osPriority_t) osPriorityNormal,
  59:Core/Src/freertos.c **** };
  60:Core/Src/freertos.c **** /* Definitions for LED_Task */
  61:Core/Src/freertos.c **** osThreadId_t LED_TaskHandle;
  62:Core/Src/freertos.c **** const osThreadAttr_t LED_Task_attributes = {
  63:Core/Src/freertos.c ****   .name = "LED_Task",
  64:Core/Src/freertos.c ****   .stack_size = 128 * 4,
  65:Core/Src/freertos.c ****   .priority = (osPriority_t) osPriorityNormal,
  66:Core/Src/freertos.c **** };
  67:Core/Src/freertos.c **** /* Definitions for Motor_Task */
  68:Core/Src/freertos.c **** osThreadId_t Motor_TaskHandle;
  69:Core/Src/freertos.c **** const osThreadAttr_t Motor_Task_attributes = {
  70:Core/Src/freertos.c ****   .name = "Motor_Task",
  71:Core/Src/freertos.c ****   .stack_size = 128 * 4,
  72:Core/Src/freertos.c ****   .priority = (osPriority_t) osPriorityNormal,
  73:Core/Src/freertos.c **** };
  74:Core/Src/freertos.c **** /* Definitions for Btn1_Queue */
  75:Core/Src/freertos.c **** osMessageQueueId_t Btn1_QueueHandle;
  76:Core/Src/freertos.c **** const osMessageQueueAttr_t Btn1_Queue_attributes = {
  77:Core/Src/freertos.c ****   .name = "Btn1_Queue"
  78:Core/Src/freertos.c **** };
  79:Core/Src/freertos.c **** /* Definitions for Btn2_Queue */
  80:Core/Src/freertos.c **** osMessageQueueId_t Btn2_QueueHandle;
  81:Core/Src/freertos.c **** const osMessageQueueAttr_t Btn2_Queue_attributes = {
  82:Core/Src/freertos.c ****   .name = "Btn2_Queue"
  83:Core/Src/freertos.c **** };
  84:Core/Src/freertos.c **** 
  85:Core/Src/freertos.c **** /* Private function prototypes -----------------------------------------------*/
  86:Core/Src/freertos.c **** /* USER CODE BEGIN FunctionPrototypes */
  87:Core/Src/freertos.c **** 
ARM GAS  C:\Users\ASUS\AppData\Local\Temp\ccu7VAaG.s 			page 3


  88:Core/Src/freertos.c **** /* USER CODE END FunctionPrototypes */
  89:Core/Src/freertos.c **** 
  90:Core/Src/freertos.c **** void StartBtn_Task(void *argument);
  91:Core/Src/freertos.c **** void StartLED_Task(void *argument);
  92:Core/Src/freertos.c **** void StartMotor_Task(void *argument);
  93:Core/Src/freertos.c **** 
  94:Core/Src/freertos.c **** void MX_FREERTOS_Init(void); /* (MISRA C 2004 rule 8.1) */
  95:Core/Src/freertos.c **** 
  96:Core/Src/freertos.c **** /**
  97:Core/Src/freertos.c ****   * @brief  FreeRTOS initialization
  98:Core/Src/freertos.c ****   * @param  None
  99:Core/Src/freertos.c ****   * @retval None
 100:Core/Src/freertos.c ****   */
 101:Core/Src/freertos.c **** void MX_FREERTOS_Init(void) {
 102:Core/Src/freertos.c ****   /* USER CODE BEGIN Init */
 103:Core/Src/freertos.c **** 
 104:Core/Src/freertos.c ****   /* USER CODE END Init */
 105:Core/Src/freertos.c **** 
 106:Core/Src/freertos.c ****   /* USER CODE BEGIN RTOS_MUTEX */
 107:Core/Src/freertos.c ****   /* add mutexes, ... */
 108:Core/Src/freertos.c ****   /* USER CODE END RTOS_MUTEX */
 109:Core/Src/freertos.c **** 
 110:Core/Src/freertos.c ****   /* USER CODE BEGIN RTOS_SEMAPHORES */
 111:Core/Src/freertos.c ****   /* add semaphores, ... */
 112:Core/Src/freertos.c ****   /* USER CODE END RTOS_SEMAPHORES */
 113:Core/Src/freertos.c **** 
 114:Core/Src/freertos.c ****   /* USER CODE BEGIN RTOS_TIMERS */
 115:Core/Src/freertos.c ****   /* start timers, add new ones, ... */
 116:Core/Src/freertos.c ****   /* USER CODE END RTOS_TIMERS */
 117:Core/Src/freertos.c **** 
 118:Core/Src/freertos.c ****   /* Create the queue(s) */
 119:Core/Src/freertos.c ****   /* creation of Btn1_Queue */
 120:Core/Src/freertos.c ****   Btn1_QueueHandle = osMessageQueueNew (16, sizeof(uint16_t), &Btn1_Queue_attributes);
 121:Core/Src/freertos.c **** 
 122:Core/Src/freertos.c ****   /* creation of Btn2_Queue */
 123:Core/Src/freertos.c ****   Btn2_QueueHandle = osMessageQueueNew (16, sizeof(uint16_t), &Btn2_Queue_attributes);
 124:Core/Src/freertos.c **** 
 125:Core/Src/freertos.c ****   /* USER CODE BEGIN RTOS_QUEUES */
 126:Core/Src/freertos.c ****   /* add queues, ... */
 127:Core/Src/freertos.c ****   /* USER CODE END RTOS_QUEUES */
 128:Core/Src/freertos.c **** 
 129:Core/Src/freertos.c ****   /* Create the thread(s) */
 130:Core/Src/freertos.c ****   /* creation of Btn_Task */
 131:Core/Src/freertos.c ****   Btn_TaskHandle = osThreadNew(StartBtn_Task, NULL, &Btn_Task_attributes);
 132:Core/Src/freertos.c **** 
 133:Core/Src/freertos.c ****   /* creation of LED_Task */
 134:Core/Src/freertos.c ****   LED_TaskHandle = osThreadNew(StartLED_Task, NULL, &LED_Task_attributes);
 135:Core/Src/freertos.c **** 
 136:Core/Src/freertos.c ****   /* creation of Motor_Task */
 137:Core/Src/freertos.c ****   Motor_TaskHandle = osThreadNew(StartMotor_Task, NULL, &Motor_Task_attributes);
 138:Core/Src/freertos.c **** 
 139:Core/Src/freertos.c ****   /* USER CODE BEGIN RTOS_THREADS */
 140:Core/Src/freertos.c ****   /* add threads, ... */
 141:Core/Src/freertos.c ****   /* USER CODE END RTOS_THREADS */
 142:Core/Src/freertos.c **** 
 143:Core/Src/freertos.c ****   /* USER CODE BEGIN RTOS_EVENTS */
 144:Core/Src/freertos.c ****   /* add events, ... */
ARM GAS  C:\Users\ASUS\AppData\Local\Temp\ccu7VAaG.s 			page 4


 145:Core/Src/freertos.c ****   /* USER CODE END RTOS_EVENTS */
 146:Core/Src/freertos.c **** 
 147:Core/Src/freertos.c **** }
 148:Core/Src/freertos.c **** 
 149:Core/Src/freertos.c **** /* USER CODE BEGIN Header_StartBtn_Task */
 150:Core/Src/freertos.c **** /**
 151:Core/Src/freertos.c ****   * @brief  Function implementing the Btn_Task thread.
 152:Core/Src/freertos.c ****   * @param  argument: Not used
 153:Core/Src/freertos.c ****   * @retval None
 154:Core/Src/freertos.c ****   */
 155:Core/Src/freertos.c **** /* USER CODE END Header_StartBtn_Task */
 156:Core/Src/freertos.c **** void StartBtn_Task(void *argument)
 157:Core/Src/freertos.c **** {
  29              		.loc 1 157 1 view -0
  30              		.cfi_startproc
  31              		@ Volatile: function does not return.
  32              		@ args = 0, pretend = 0, frame = 0
  33              		@ frame_needed = 0, uses_anonymous_args = 0
  34              	.LVL0:
  35              		.loc 1 157 1 is_stmt 0 view .LVU1
  36 0000 08B5     		push	{r3, lr}
  37              	.LCFI0:
  38              		.cfi_def_cfa_offset 8
  39              		.cfi_offset 3, -8
  40              		.cfi_offset 14, -4
  41 0002 09E0     		b	.L2
  42              	.LVL1:
  43              	.L9:
 158:Core/Src/freertos.c ****   /* USER CODE BEGIN StartBtn_Task */
 159:Core/Src/freertos.c **** 
 160:Core/Src/freertos.c ****   /* Infinite loop */
 161:Core/Src/freertos.c ****   for(;;)
 162:Core/Src/freertos.c ****   {
 163:Core/Src/freertos.c ****     if (HAL_GPIO_ReadPin(GPIOB, GPIO_PIN_9) == GPIO_PIN_RESET) 
 164:Core/Src/freertos.c ****     {
 165:Core/Src/freertos.c ****       osDelay(10); // 防抖延时
 166:Core/Src/freertos.c ****       if (HAL_GPIO_ReadPin(GPIOB, GPIO_PIN_9) == GPIO_PIN_RESET)
 167:Core/Src/freertos.c ****       {
 168:Core/Src/freertos.c ****         btn1_counter++;
 169:Core/Src/freertos.c ****         osMessageQueuePut(Btn1_QueueHandle, &btn1_counter, NULL, osWaitForever);
 170:Core/Src/freertos.c ****       }
 171:Core/Src/freertos.c ****       while (HAL_GPIO_ReadPin(GPIOB, GPIO_PIN_9) == GPIO_PIN_RESET)
 172:Core/Src/freertos.c ****       {
 173:Core/Src/freertos.c ****         osDelay(10); // 等待按键释放
  44              		.loc 1 173 9 is_stmt 1 view .LVU2
  45 0004 0A20     		movs	r0, #10
  46 0006 FFF7FEFF 		bl	osDelay
  47              	.LVL2:
  48              	.L5:
 171:Core/Src/freertos.c ****       {
  49              		.loc 1 171 13 view .LVU3
 171:Core/Src/freertos.c ****       {
  50              		.loc 1 171 14 is_stmt 0 view .LVU4
  51 000a 4FF40071 		mov	r1, #512
  52 000e 1248     		ldr	r0, .L10
  53 0010 FFF7FEFF 		bl	HAL_GPIO_ReadPin
  54              	.LVL3:
ARM GAS  C:\Users\ASUS\AppData\Local\Temp\ccu7VAaG.s 			page 5


 171:Core/Src/freertos.c ****       {
  55              		.loc 1 171 13 view .LVU5
  56 0014 0028     		cmp	r0, #0
  57 0016 F5D0     		beq	.L9
  58              	.L2:
 161:Core/Src/freertos.c ****   {
  59              		.loc 1 161 3 is_stmt 1 view .LVU6
 163:Core/Src/freertos.c ****     {
  60              		.loc 1 163 5 view .LVU7
 163:Core/Src/freertos.c ****     {
  61              		.loc 1 163 9 is_stmt 0 view .LVU8
  62 0018 4FF40071 		mov	r1, #512
  63 001c 0E48     		ldr	r0, .L10
  64 001e FFF7FEFF 		bl	HAL_GPIO_ReadPin
  65              	.LVL4:
 163:Core/Src/freertos.c ****     {
  66              		.loc 1 163 8 view .LVU9
  67 0022 A8B9     		cbnz	r0, .L3
 165:Core/Src/freertos.c ****       if (HAL_GPIO_ReadPin(GPIOB, GPIO_PIN_9) == GPIO_PIN_RESET)
  68              		.loc 1 165 7 is_stmt 1 view .LVU10
  69 0024 0A20     		movs	r0, #10
  70 0026 FFF7FEFF 		bl	osDelay
  71              	.LVL5:
 166:Core/Src/freertos.c ****       {
  72              		.loc 1 166 7 view .LVU11
 166:Core/Src/freertos.c ****       {
  73              		.loc 1 166 11 is_stmt 0 view .LVU12
  74 002a 4FF40071 		mov	r1, #512
  75 002e 0A48     		ldr	r0, .L10
  76 0030 FFF7FEFF 		bl	HAL_GPIO_ReadPin
  77              	.LVL6:
 166:Core/Src/freertos.c ****       {
  78              		.loc 1 166 10 view .LVU13
  79 0034 0028     		cmp	r0, #0
  80 0036 E8D1     		bne	.L5
 168:Core/Src/freertos.c ****         osMessageQueuePut(Btn1_QueueHandle, &btn1_counter, NULL, osWaitForever);
  81              		.loc 1 168 9 is_stmt 1 view .LVU14
 168:Core/Src/freertos.c ****         osMessageQueuePut(Btn1_QueueHandle, &btn1_counter, NULL, osWaitForever);
  82              		.loc 1 168 21 is_stmt 0 view .LVU15
  83 0038 0849     		ldr	r1, .L10+4
  84 003a 0B88     		ldrh	r3, [r1]
  85 003c 0133     		adds	r3, r3, #1
  86 003e 0B80     		strh	r3, [r1]	@ movhi
 169:Core/Src/freertos.c ****       }
  87              		.loc 1 169 9 is_stmt 1 view .LVU16
  88 0040 4FF0FF33 		mov	r3, #-1
  89 0044 0022     		movs	r2, #0
  90 0046 0648     		ldr	r0, .L10+8
  91 0048 0068     		ldr	r0, [r0]
  92 004a FFF7FEFF 		bl	osMessageQueuePut
  93              	.LVL7:
  94 004e DCE7     		b	.L5
  95              	.L3:
 174:Core/Src/freertos.c ****       }
 175:Core/Src/freertos.c ****     }
 176:Core/Src/freertos.c ****     else
 177:Core/Src/freertos.c ****     {
ARM GAS  C:\Users\ASUS\AppData\Local\Temp\ccu7VAaG.s 			page 6


 178:Core/Src/freertos.c ****       osDelay(10);
  96              		.loc 1 178 7 view .LVU17
  97 0050 0A20     		movs	r0, #10
  98 0052 FFF7FEFF 		bl	osDelay
  99              	.LVL8:
 100 0056 DFE7     		b	.L2
 101              	.L11:
 102              		.align	2
 103              	.L10:
 104 0058 00040240 		.word	1073873920
 105 005c 00000000 		.word	.LANCHOR0
 106 0060 00000000 		.word	.LANCHOR1
 107              		.cfi_endproc
 108              	.LFE139:
 110              		.section	.text.StartLED_Task,"ax",%progbits
 111              		.align	1
 112              		.global	StartLED_Task
 113              		.syntax unified
 114              		.thumb
 115              		.thumb_func
 117              	StartLED_Task:
 118              	.LFB140:
 179:Core/Src/freertos.c ****     }
 180:Core/Src/freertos.c ****   }
 181:Core/Src/freertos.c ****   /* USER CODE END StartBtn_Task */
 182:Core/Src/freertos.c **** }
 183:Core/Src/freertos.c **** 
 184:Core/Src/freertos.c **** /* USER CODE BEGIN Header_StartLED_Task */
 185:Core/Src/freertos.c **** /**
 186:Core/Src/freertos.c **** * @brief Function implementing the LED_Task thread.
 187:Core/Src/freertos.c **** * @param argument: Not used
 188:Core/Src/freertos.c **** * @retval None
 189:Core/Src/freertos.c **** */
 190:Core/Src/freertos.c **** /* USER CODE END Header_StartLED_Task */
 191:Core/Src/freertos.c **** void StartLED_Task(void *argument)
 192:Core/Src/freertos.c **** {
 119              		.loc 1 192 1 view -0
 120              		.cfi_startproc
 121              		@ Volatile: function does not return.
 122              		@ args = 0, pretend = 0, frame = 0
 123              		@ frame_needed = 0, uses_anonymous_args = 0
 124              	.LVL9:
 125              		.loc 1 192 1 is_stmt 0 view .LVU19
 126 0000 08B5     		push	{r3, lr}
 127              	.LCFI1:
 128              		.cfi_def_cfa_offset 8
 129              		.cfi_offset 3, -8
 130              		.cfi_offset 14, -4
 131              	.LVL10:
 132              	.L13:
 193:Core/Src/freertos.c ****   /* USER CODE BEGIN StartLED_Task */
 194:Core/Src/freertos.c **** 
 195:Core/Src/freertos.c ****   /* Infinite loop */
 196:Core/Src/freertos.c ****   for(;;)
 133              		.loc 1 196 3 is_stmt 1 discriminator 1 view .LVU20
 197:Core/Src/freertos.c ****   {
 198:Core/Src/freertos.c ****     // osMessageQueueGet(Btn1_QueueHandle, &btn1_counter, NULL, osWaitForever);
ARM GAS  C:\Users\ASUS\AppData\Local\Temp\ccu7VAaG.s 			page 7


 199:Core/Src/freertos.c ****     // if (btn1_counter % 2 == 0) {
 200:Core/Src/freertos.c ****     //   HAL_GPIO_WritePin(GPIOC, GPIO_PIN_0, GPIO_PIN_RESET);
 201:Core/Src/freertos.c ****     // } 
 202:Core/Src/freertos.c ****     // else 
 203:Core/Src/freertos.c ****     // {
 204:Core/Src/freertos.c ****     //   HAL_GPIO_WritePin(GPIOC, GPIO_PIN_0, GPIO_PIN_SET);
 205:Core/Src/freertos.c ****     // }
 206:Core/Src/freertos.c ****     HAL_GPIO_TogglePin(GPIOB, GPIO_PIN_8);
 134              		.loc 1 206 5 discriminator 1 view .LVU21
 135 0002 4FF48071 		mov	r1, #256
 136 0006 0348     		ldr	r0, .L15
 137 0008 FFF7FEFF 		bl	HAL_GPIO_TogglePin
 138              	.LVL11:
 207:Core/Src/freertos.c ****     osDelay(100);
 139              		.loc 1 207 5 discriminator 1 view .LVU22
 140 000c 6420     		movs	r0, #100
 141 000e FFF7FEFF 		bl	osDelay
 142              	.LVL12:
 196:Core/Src/freertos.c ****   {
 143              		.loc 1 196 8 discriminator 1 view .LVU23
 144 0012 F6E7     		b	.L13
 145              	.L16:
 146              		.align	2
 147              	.L15:
 148 0014 00040240 		.word	1073873920
 149              		.cfi_endproc
 150              	.LFE140:
 152              		.section	.text.StartMotor_Task,"ax",%progbits
 153              		.align	1
 154              		.global	StartMotor_Task
 155              		.syntax unified
 156              		.thumb
 157              		.thumb_func
 159              	StartMotor_Task:
 160              	.LVL13:
 161              	.LFB141:
 208:Core/Src/freertos.c ****   }
 209:Core/Src/freertos.c ****   /* USER CODE END StartLED_Task */
 210:Core/Src/freertos.c **** }
 211:Core/Src/freertos.c **** 
 212:Core/Src/freertos.c **** /* USER CODE BEGIN Header_StartMotor_Task */
 213:Core/Src/freertos.c **** /**
 214:Core/Src/freertos.c **** * @brief Function implementing the Motor_Task thread.
 215:Core/Src/freertos.c **** * @param argument: Not used
 216:Core/Src/freertos.c **** * @retval None
 217:Core/Src/freertos.c **** */
 218:Core/Src/freertos.c **** /* USER CODE END Header_StartMotor_Task */
 219:Core/Src/freertos.c **** void StartMotor_Task(void *argument)
 220:Core/Src/freertos.c **** {
 162              		.loc 1 220 1 view -0
 163              		.cfi_startproc
 164              		@ args = 0, pretend = 0, frame = 0
 165              		@ frame_needed = 0, uses_anonymous_args = 0
 166              		.loc 1 220 1 is_stmt 0 view .LVU25
 167 0000 10B5     		push	{r4, lr}
 168              	.LCFI2:
 169              		.cfi_def_cfa_offset 8
ARM GAS  C:\Users\ASUS\AppData\Local\Temp\ccu7VAaG.s 			page 8


 170              		.cfi_offset 4, -8
 171              		.cfi_offset 14, -4
 172 0002 82B0     		sub	sp, sp, #8
 173              	.LCFI3:
 174              		.cfi_def_cfa_offset 16
 221:Core/Src/freertos.c ****   /* USER CODE BEGIN StartMotor_Task */
 222:Core/Src/freertos.c ****   uint16_t motor_vel_init = 500;
 175              		.loc 1 222 3 is_stmt 1 view .LVU26
 176              	.LVL14:
 223:Core/Src/freertos.c ****   Emm_V5_En_Control(0x01, true, false);
 177              		.loc 1 223 3 view .LVU27
 178 0004 0022     		movs	r2, #0
 179 0006 0121     		movs	r1, #1
 180 0008 0846     		mov	r0, r1
 181              	.LVL15:
 182              		.loc 1 223 3 is_stmt 0 view .LVU28
 183 000a FFF7FEFF 		bl	Emm_V5_En_Control
 184              	.LVL16:
 224:Core/Src/freertos.c ****   osDelay(10);
 185              		.loc 1 224 3 is_stmt 1 view .LVU29
 186 000e 0A20     		movs	r0, #10
 187 0010 FFF7FEFF 		bl	osDelay
 188              	.LVL17:
 225:Core/Src/freertos.c ****   Emm_V5_Vel_Control(0x01, 0x00, motor_vel_init, 50, false);
 189              		.loc 1 225 3 view .LVU30
 190 0014 0021     		movs	r1, #0
 191 0016 0091     		str	r1, [sp]
 192 0018 3223     		movs	r3, #50
 193 001a 4FF4FA72 		mov	r2, #500
 194 001e 0120     		movs	r0, #1
 195 0020 FFF7FEFF 		bl	Emm_V5_Vel_Control
 196              	.LVL18:
 226:Core/Src/freertos.c ****   osDelay(10);
 197              		.loc 1 226 3 view .LVU31
 198 0024 0A20     		movs	r0, #10
 199 0026 FFF7FEFF 		bl	osDelay
 200              	.LVL19:
 201 002a 0AE0     		b	.L20
 202              	.L22:
 227:Core/Src/freertos.c ****   /* Infinite loop */
 228:Core/Src/freertos.c ****   for(;;)
 229:Core/Src/freertos.c ****   {
 230:Core/Src/freertos.c ****     osMessageQueueGet(Btn1_QueueHandle, &btn1_counter, NULL, osWaitForever);
 231:Core/Src/freertos.c ****     if (btn1_counter % 2 == 0)
 232:Core/Src/freertos.c ****     {
 233:Core/Src/freertos.c ****       Emm_V5_Vel_Control(0x01, 0x00, motor_vel_init, 50, false);
 203              		.loc 1 233 7 view .LVU32
 204 002c 0021     		movs	r1, #0
 205 002e 0091     		str	r1, [sp]
 206 0030 3223     		movs	r3, #50
 207 0032 4FF4FA72 		mov	r2, #500
 208 0036 0120     		movs	r0, #1
 209 0038 FFF7FEFF 		bl	Emm_V5_Vel_Control
 210              	.LVL20:
 211              	.L19:
 234:Core/Src/freertos.c ****     }
 235:Core/Src/freertos.c ****     else
ARM GAS  C:\Users\ASUS\AppData\Local\Temp\ccu7VAaG.s 			page 9


 236:Core/Src/freertos.c ****     {
 237:Core/Src/freertos.c ****       Emm_V5_Vel_Control(0x01, 0x01, 0, 50, false);
 238:Core/Src/freertos.c ****     }
 239:Core/Src/freertos.c ****     osDelay(10);
 212              		.loc 1 239 5 view .LVU33
 213 003c 0A20     		movs	r0, #10
 214 003e FFF7FEFF 		bl	osDelay
 215              	.LVL21:
 228:Core/Src/freertos.c ****   {
 216              		.loc 1 228 8 view .LVU34
 217              	.L20:
 228:Core/Src/freertos.c ****   {
 218              		.loc 1 228 3 view .LVU35
 230:Core/Src/freertos.c ****     if (btn1_counter % 2 == 0)
 219              		.loc 1 230 5 view .LVU36
 220 0042 0A4C     		ldr	r4, .L23
 221 0044 4FF0FF33 		mov	r3, #-1
 222 0048 0022     		movs	r2, #0
 223 004a 2146     		mov	r1, r4
 224 004c 0848     		ldr	r0, .L23+4
 225 004e 0068     		ldr	r0, [r0]
 226 0050 FFF7FEFF 		bl	osMessageQueueGet
 227              	.LVL22:
 231:Core/Src/freertos.c ****     {
 228              		.loc 1 231 5 view .LVU37
 231:Core/Src/freertos.c ****     {
 229              		.loc 1 231 26 is_stmt 0 view .LVU38
 230 0054 2388     		ldrh	r3, [r4]
 231:Core/Src/freertos.c ****     {
 231              		.loc 1 231 8 view .LVU39
 232 0056 13F0010F 		tst	r3, #1
 233 005a E7D0     		beq	.L22
 237:Core/Src/freertos.c ****     }
 234              		.loc 1 237 7 is_stmt 1 view .LVU40
 235 005c 0022     		movs	r2, #0
 236 005e 0092     		str	r2, [sp]
 237 0060 3223     		movs	r3, #50
 238 0062 0121     		movs	r1, #1
 239 0064 0846     		mov	r0, r1
 240 0066 FFF7FEFF 		bl	Emm_V5_Vel_Control
 241              	.LVL23:
 242 006a E7E7     		b	.L19
 243              	.L24:
 244              		.align	2
 245              	.L23:
 246 006c 00000000 		.word	.LANCHOR0
 247 0070 00000000 		.word	.LANCHOR1
 248              		.cfi_endproc
 249              	.LFE141:
 251              		.section	.text.MX_FREERTOS_Init,"ax",%progbits
 252              		.align	1
 253              		.global	MX_FREERTOS_Init
 254              		.syntax unified
 255              		.thumb
 256              		.thumb_func
 258              	MX_FREERTOS_Init:
 259              	.LFB138:
ARM GAS  C:\Users\ASUS\AppData\Local\Temp\ccu7VAaG.s 			page 10


 101:Core/Src/freertos.c ****   /* USER CODE BEGIN Init */
 260              		.loc 1 101 29 view -0
 261              		.cfi_startproc
 262              		@ args = 0, pretend = 0, frame = 0
 263              		@ frame_needed = 0, uses_anonymous_args = 0
 264 0000 08B5     		push	{r3, lr}
 265              	.LCFI4:
 266              		.cfi_def_cfa_offset 8
 267              		.cfi_offset 3, -8
 268              		.cfi_offset 14, -4
 120:Core/Src/freertos.c **** 
 269              		.loc 1 120 3 view .LVU42
 120:Core/Src/freertos.c **** 
 270              		.loc 1 120 22 is_stmt 0 view .LVU43
 271 0002 124A     		ldr	r2, .L27
 272 0004 0221     		movs	r1, #2
 273 0006 1020     		movs	r0, #16
 274 0008 FFF7FEFF 		bl	osMessageQueueNew
 275              	.LVL24:
 120:Core/Src/freertos.c **** 
 276              		.loc 1 120 20 view .LVU44
 277 000c 104B     		ldr	r3, .L27+4
 278 000e 1860     		str	r0, [r3]
 123:Core/Src/freertos.c **** 
 279              		.loc 1 123 3 is_stmt 1 view .LVU45
 123:Core/Src/freertos.c **** 
 280              		.loc 1 123 22 is_stmt 0 view .LVU46
 281 0010 104A     		ldr	r2, .L27+8
 282 0012 0221     		movs	r1, #2
 283 0014 1020     		movs	r0, #16
 284 0016 FFF7FEFF 		bl	osMessageQueueNew
 285              	.LVL25:
 123:Core/Src/freertos.c **** 
 286              		.loc 1 123 20 view .LVU47
 287 001a 0F4B     		ldr	r3, .L27+12
 288 001c 1860     		str	r0, [r3]
 131:Core/Src/freertos.c **** 
 289              		.loc 1 131 3 is_stmt 1 view .LVU48
 131:Core/Src/freertos.c **** 
 290              		.loc 1 131 20 is_stmt 0 view .LVU49
 291 001e 0F4A     		ldr	r2, .L27+16
 292 0020 0021     		movs	r1, #0
 293 0022 0F48     		ldr	r0, .L27+20
 294 0024 FFF7FEFF 		bl	osThreadNew
 295              	.LVL26:
 131:Core/Src/freertos.c **** 
 296              		.loc 1 131 18 view .LVU50
 297 0028 0E4B     		ldr	r3, .L27+24
 298 002a 1860     		str	r0, [r3]
 134:Core/Src/freertos.c **** 
 299              		.loc 1 134 3 is_stmt 1 view .LVU51
 134:Core/Src/freertos.c **** 
 300              		.loc 1 134 20 is_stmt 0 view .LVU52
 301 002c 0E4A     		ldr	r2, .L27+28
 302 002e 0021     		movs	r1, #0
 303 0030 0E48     		ldr	r0, .L27+32
 304 0032 FFF7FEFF 		bl	osThreadNew
ARM GAS  C:\Users\ASUS\AppData\Local\Temp\ccu7VAaG.s 			page 11


 305              	.LVL27:
 134:Core/Src/freertos.c **** 
 306              		.loc 1 134 18 view .LVU53
 307 0036 0E4B     		ldr	r3, .L27+36
 308 0038 1860     		str	r0, [r3]
 137:Core/Src/freertos.c **** 
 309              		.loc 1 137 3 is_stmt 1 view .LVU54
 137:Core/Src/freertos.c **** 
 310              		.loc 1 137 22 is_stmt 0 view .LVU55
 311 003a 0E4A     		ldr	r2, .L27+40
 312 003c 0021     		movs	r1, #0
 313 003e 0E48     		ldr	r0, .L27+44
 314 0040 FFF7FEFF 		bl	osThreadNew
 315              	.LVL28:
 137:Core/Src/freertos.c **** 
 316              		.loc 1 137 20 view .LVU56
 317 0044 0D4B     		ldr	r3, .L27+48
 318 0046 1860     		str	r0, [r3]
 147:Core/Src/freertos.c **** 
 319              		.loc 1 147 1 view .LVU57
 320 0048 08BD     		pop	{r3, pc}
 321              	.L28:
 322 004a 00BF     		.align	2
 323              	.L27:
 324 004c 00000000 		.word	.LANCHOR2
 325 0050 00000000 		.word	.LANCHOR1
 326 0054 00000000 		.word	.LANCHOR3
 327 0058 00000000 		.word	.LANCHOR4
 328 005c 00000000 		.word	.LANCHOR5
 329 0060 00000000 		.word	StartBtn_Task
 330 0064 00000000 		.word	.LANCHOR6
 331 0068 00000000 		.word	.LANCHOR7
 332 006c 00000000 		.word	StartLED_Task
 333 0070 00000000 		.word	.LANCHOR8
 334 0074 00000000 		.word	.LANCHOR9
 335 0078 00000000 		.word	StartMotor_Task
 336 007c 00000000 		.word	.LANCHOR10
 337              		.cfi_endproc
 338              	.LFE138:
 340              		.global	Btn2_Queue_attributes
 341              		.section	.rodata.str1.4,"aMS",%progbits,1
 342              		.align	2
 343              	.LC0:
 344 0000 42746E32 		.ascii	"Btn2_Queue\000"
 344      5F517565 
 344      756500
 345              		.global	Btn2_QueueHandle
 346              		.global	Btn1_Queue_attributes
 347 000b 00       		.align	2
 348              	.LC1:
 349 000c 42746E31 		.ascii	"Btn1_Queue\000"
 349      5F517565 
 349      756500
 350              		.global	Btn1_QueueHandle
 351              		.global	Motor_Task_attributes
 352 0017 00       		.align	2
 353              	.LC2:
ARM GAS  C:\Users\ASUS\AppData\Local\Temp\ccu7VAaG.s 			page 12


 354 0018 4D6F746F 		.ascii	"Motor_Task\000"
 354      725F5461 
 354      736B00
 355              		.global	Motor_TaskHandle
 356              		.global	LED_Task_attributes
 357 0023 00       		.align	2
 358              	.LC3:
 359 0024 4C45445F 		.ascii	"LED_Task\000"
 359      5461736B 
 359      00
 360              		.global	LED_TaskHandle
 361              		.global	Btn_Task_attributes
 362 002d 000000   		.align	2
 363              	.LC4:
 364 0030 42746E5F 		.ascii	"Btn_Task\000"
 364      5461736B 
 364      00
 365              		.global	Btn_TaskHandle
 366              		.global	btn2_counter
 367              		.global	btn1_counter
 368              		.section	.bss.Btn1_QueueHandle,"aw",%nobits
 369              		.align	2
 370              		.set	.LANCHOR1,. + 0
 373              	Btn1_QueueHandle:
 374 0000 00000000 		.space	4
 375              		.section	.bss.Btn2_QueueHandle,"aw",%nobits
 376              		.align	2
 377              		.set	.LANCHOR4,. + 0
 380              	Btn2_QueueHandle:
 381 0000 00000000 		.space	4
 382              		.section	.bss.Btn_TaskHandle,"aw",%nobits
 383              		.align	2
 384              		.set	.LANCHOR6,. + 0
 387              	Btn_TaskHandle:
 388 0000 00000000 		.space	4
 389              		.section	.bss.LED_TaskHandle,"aw",%nobits
 390              		.align	2
 391              		.set	.LANCHOR8,. + 0
 394              	LED_TaskHandle:
 395 0000 00000000 		.space	4
 396              		.section	.bss.Motor_TaskHandle,"aw",%nobits
 397              		.align	2
 398              		.set	.LANCHOR10,. + 0
 401              	Motor_TaskHandle:
 402 0000 00000000 		.space	4
 403              		.section	.bss.btn1_counter,"aw",%nobits
 404              		.align	1
 405              		.set	.LANCHOR0,. + 0
 408              	btn1_counter:
 409 0000 0000     		.space	2
 410              		.section	.bss.btn2_counter,"aw",%nobits
 411              		.align	1
 414              	btn2_counter:
 415 0000 0000     		.space	2
 416              		.section	.rodata.Btn1_Queue_attributes,"a"
 417              		.align	2
 418              		.set	.LANCHOR2,. + 0
ARM GAS  C:\Users\ASUS\AppData\Local\Temp\ccu7VAaG.s 			page 13


 421              	Btn1_Queue_attributes:
 422 0000 0C000000 		.word	.LC1
 423 0004 00000000 		.space	20
 423      00000000 
 423      00000000 
 423      00000000 
 423      00000000 
 424              		.section	.rodata.Btn2_Queue_attributes,"a"
 425              		.align	2
 426              		.set	.LANCHOR3,. + 0
 429              	Btn2_Queue_attributes:
 430 0000 00000000 		.word	.LC0
 431 0004 00000000 		.space	20
 431      00000000 
 431      00000000 
 431      00000000 
 431      00000000 
 432              		.section	.rodata.Btn_Task_attributes,"a"
 433              		.align	2
 434              		.set	.LANCHOR5,. + 0
 437              	Btn_Task_attributes:
 438 0000 30000000 		.word	.LC4
 439 0004 00000000 		.space	16
 439      00000000 
 439      00000000 
 439      00000000 
 440 0014 00020000 		.word	512
 441 0018 18000000 		.word	24
 442 001c 00000000 		.space	8
 442      00000000 
 443              		.section	.rodata.LED_Task_attributes,"a"
 444              		.align	2
 445              		.set	.LANCHOR7,. + 0
 448              	LED_Task_attributes:
 449 0000 24000000 		.word	.LC3
 450 0004 00000000 		.space	16
 450      00000000 
 450      00000000 
 450      00000000 
 451 0014 00020000 		.word	512
 452 0018 18000000 		.word	24
 453 001c 00000000 		.space	8
 453      00000000 
 454              		.section	.rodata.Motor_Task_attributes,"a"
 455              		.align	2
 456              		.set	.LANCHOR9,. + 0
 459              	Motor_Task_attributes:
 460 0000 18000000 		.word	.LC2
 461 0004 00000000 		.space	16
 461      00000000 
 461      00000000 
 461      00000000 
 462 0014 00020000 		.word	512
 463 0018 18000000 		.word	24
 464 001c 00000000 		.space	8
 464      00000000 
 465              		.text
ARM GAS  C:\Users\ASUS\AppData\Local\Temp\ccu7VAaG.s 			page 14


 466              	.Letext0:
 467              		.file 2 "d:\\chain\\gcc-arm-none-eabi-10.3-2021.10-win32\\gcc-arm-none-eabi-10.3-2021.10\\arm-none
 468              		.file 3 "d:\\chain\\gcc-arm-none-eabi-10.3-2021.10-win32\\gcc-arm-none-eabi-10.3-2021.10\\arm-none
 469              		.file 4 "Drivers/CMSIS/Device/ST/STM32F4xx/Include/stm32f427xx.h"
 470              		.file 5 "Drivers/STM32F4xx_HAL_Driver/Inc/stm32f4xx_hal_gpio.h"
 471              		.file 6 "Middlewares/Third_Party/FreeRTOS/Source/CMSIS_RTOS_V2/cmsis_os2.h"
 472              		.file 7 "Core/Inc/Emm_V5.h"
ARM GAS  C:\Users\ASUS\AppData\Local\Temp\ccu7VAaG.s 			page 15


DEFINED SYMBOLS
                            *ABS*:00000000 freertos.c
C:\Users\ASUS\AppData\Local\Temp\ccu7VAaG.s:20     .text.StartBtn_Task:00000000 $t
C:\Users\ASUS\AppData\Local\Temp\ccu7VAaG.s:26     .text.StartBtn_Task:00000000 StartBtn_Task
C:\Users\ASUS\AppData\Local\Temp\ccu7VAaG.s:104    .text.StartBtn_Task:00000058 $d
C:\Users\ASUS\AppData\Local\Temp\ccu7VAaG.s:111    .text.StartLED_Task:00000000 $t
C:\Users\ASUS\AppData\Local\Temp\ccu7VAaG.s:117    .text.StartLED_Task:00000000 StartLED_Task
C:\Users\ASUS\AppData\Local\Temp\ccu7VAaG.s:148    .text.StartLED_Task:00000014 $d
C:\Users\ASUS\AppData\Local\Temp\ccu7VAaG.s:153    .text.StartMotor_Task:00000000 $t
C:\Users\ASUS\AppData\Local\Temp\ccu7VAaG.s:159    .text.StartMotor_Task:00000000 StartMotor_Task
C:\Users\ASUS\AppData\Local\Temp\ccu7VAaG.s:246    .text.StartMotor_Task:0000006c $d
C:\Users\ASUS\AppData\Local\Temp\ccu7VAaG.s:252    .text.MX_FREERTOS_Init:00000000 $t
C:\Users\ASUS\AppData\Local\Temp\ccu7VAaG.s:258    .text.MX_FREERTOS_Init:00000000 MX_FREERTOS_Init
C:\Users\ASUS\AppData\Local\Temp\ccu7VAaG.s:324    .text.MX_FREERTOS_Init:0000004c $d
C:\Users\ASUS\AppData\Local\Temp\ccu7VAaG.s:429    .rodata.Btn2_Queue_attributes:00000000 Btn2_Queue_attributes
C:\Users\ASUS\AppData\Local\Temp\ccu7VAaG.s:342    .rodata.str1.4:00000000 $d
C:\Users\ASUS\AppData\Local\Temp\ccu7VAaG.s:380    .bss.Btn2_QueueHandle:00000000 Btn2_QueueHandle
C:\Users\ASUS\AppData\Local\Temp\ccu7VAaG.s:421    .rodata.Btn1_Queue_attributes:00000000 Btn1_Queue_attributes
C:\Users\ASUS\AppData\Local\Temp\ccu7VAaG.s:373    .bss.Btn1_QueueHandle:00000000 Btn1_QueueHandle
C:\Users\ASUS\AppData\Local\Temp\ccu7VAaG.s:459    .rodata.Motor_Task_attributes:00000000 Motor_Task_attributes
C:\Users\ASUS\AppData\Local\Temp\ccu7VAaG.s:401    .bss.Motor_TaskHandle:00000000 Motor_TaskHandle
C:\Users\ASUS\AppData\Local\Temp\ccu7VAaG.s:448    .rodata.LED_Task_attributes:00000000 LED_Task_attributes
C:\Users\ASUS\AppData\Local\Temp\ccu7VAaG.s:394    .bss.LED_TaskHandle:00000000 LED_TaskHandle
C:\Users\ASUS\AppData\Local\Temp\ccu7VAaG.s:437    .rodata.Btn_Task_attributes:00000000 Btn_Task_attributes
C:\Users\ASUS\AppData\Local\Temp\ccu7VAaG.s:387    .bss.Btn_TaskHandle:00000000 Btn_TaskHandle
C:\Users\ASUS\AppData\Local\Temp\ccu7VAaG.s:414    .bss.btn2_counter:00000000 btn2_counter
C:\Users\ASUS\AppData\Local\Temp\ccu7VAaG.s:408    .bss.btn1_counter:00000000 btn1_counter
C:\Users\ASUS\AppData\Local\Temp\ccu7VAaG.s:369    .bss.Btn1_QueueHandle:00000000 $d
C:\Users\ASUS\AppData\Local\Temp\ccu7VAaG.s:376    .bss.Btn2_QueueHandle:00000000 $d
C:\Users\ASUS\AppData\Local\Temp\ccu7VAaG.s:383    .bss.Btn_TaskHandle:00000000 $d
C:\Users\ASUS\AppData\Local\Temp\ccu7VAaG.s:390    .bss.LED_TaskHandle:00000000 $d
C:\Users\ASUS\AppData\Local\Temp\ccu7VAaG.s:397    .bss.Motor_TaskHandle:00000000 $d
C:\Users\ASUS\AppData\Local\Temp\ccu7VAaG.s:404    .bss.btn1_counter:00000000 $d
C:\Users\ASUS\AppData\Local\Temp\ccu7VAaG.s:411    .bss.btn2_counter:00000000 $d
C:\Users\ASUS\AppData\Local\Temp\ccu7VAaG.s:417    .rodata.Btn1_Queue_attributes:00000000 $d
C:\Users\ASUS\AppData\Local\Temp\ccu7VAaG.s:425    .rodata.Btn2_Queue_attributes:00000000 $d
C:\Users\ASUS\AppData\Local\Temp\ccu7VAaG.s:433    .rodata.Btn_Task_attributes:00000000 $d
C:\Users\ASUS\AppData\Local\Temp\ccu7VAaG.s:444    .rodata.LED_Task_attributes:00000000 $d
C:\Users\ASUS\AppData\Local\Temp\ccu7VAaG.s:455    .rodata.Motor_Task_attributes:00000000 $d

UNDEFINED SYMBOLS
osDelay
HAL_GPIO_ReadPin
osMessageQueuePut
HAL_GPIO_TogglePin
Emm_V5_En_Control
Emm_V5_Vel_Control
osMessageQueueGet
osMessageQueueNew
osThreadNew
